; Function Attrs: nounwind uwtable
define void @lv_matrix_rotate(ptr noundef %0, float noundef %1) local_unnamed_addr #1 {
  %3 = alloca %struct._lv_matrix_t, align 4
  %4 = alloca %struct._lv_matrix_t, align 4
  %5 = fdiv float %1, 1.800000e+02
  %6 = fmul float %5, 0x400921FB60000000
  %7 = tail call float @cosf(float noundef %6) #9, !tbaa !10
  %8 = tail call float @sinf(float noundef %6) #9, !tbaa !10
  call void @llvm.lifetime.start.p0(i64 36, ptr nonnull %4) #9
  store float %7, ptr %4, align 4, !tbaa !3
  %9 = getelementptr inbounds i8, ptr %4, i64 4
  %10 = fneg float %8
  store float %10, ptr %9, align 4, !tbaa !3
  %11 = getelementptr inbounds i8, ptr %4, i64 8
  store float 0.000000e+00, ptr %11, align 4, !tbaa !3
  %12 = getelementptr inbounds i8, ptr %4, i64 12
  store float %8, ptr %12, align 4, !tbaa !3
  %13 = getelementptr inbounds i8, ptr %4, i64 16
  store float %7, ptr %13, align 4, !tbaa !3
  %14 = getelementptr inbounds i8, ptr %4, i64 20
  store float 0.000000e+00, ptr %14, align 4, !tbaa !3
  %15 = getelementptr inbounds i8, ptr %4, i64 24
  store float 0.000000e+00, ptr %15, align 4, !tbaa !3
  %16 = getelementptr inbounds i8, ptr %4, i64 28
  store float 0.000000e+00, ptr %16, align 4, !tbaa !3
  %17 = getelementptr inbounds i8, ptr %4, i64 32
  store float 1.000000e+00, ptr %17, align 4, !tbaa !3
  call void @llvm.lifetime.start.p0(i64 36, ptr nonnull %3) #9
  br label %.preheader.i

.preheader.i:                                     ; preds = %24, %2
  %indvars.iv22.i = phi i64 [ 0, %2 ], [ %indvars.iv.next23.i, %24 ]
  %18 = getelementptr inbounds [3 x [3 x float]], ptr %0, i64 0, i64 %indvars.iv22.i
  %19 = load float, ptr %18, align 4, !tbaa !3
  %20 = getelementptr inbounds i8, ptr %18, i64 4
  %21 = load float, ptr %20, align 4, !tbaa !3
  %22 = getelementptr inbounds i8, ptr %18, i64 8
  %23 = load float, ptr %22, align 4, !tbaa !3
  br label %25

24:                                               ; preds = %25
  %indvars.iv.next23.i = add nuw nsw i64 %indvars.iv22.i, 1
  %exitcond25.not.i = icmp eq i64 %indvars.iv.next23.i, 3
  br i1 %exitcond25.not.i, label %lv_matrix_multiply.exit, label %.preheader.i, !llvm.loop !7

25:                                               ; preds = %25, %.preheader.i
  %indvars.iv.i = phi i64 [ 0, %.preheader.i ], [ %indvars.iv.next.i, %25 ]
  %26 = getelementptr inbounds [3 x float], ptr %4, i64 0, i64 %indvars.iv.i
  %27 = load float, ptr %26, align 4, !tbaa !3
  %28 = getelementptr inbounds [3 x float], ptr %12, i64 0, i64 %indvars.iv.i
  %29 = load float, ptr %28, align 4, !tbaa !3
  %30 = fmul float %21, %29
  %31 = tail call float @llvm.fmuladd.f32(float %19, float %27, float %30)
  %32 = getelementptr inbounds [3 x float], ptr %15, i64 0, i64 %indvars.iv.i
  %33 = load float, ptr %32, align 4, !tbaa !3
  %34 = tail call float @llvm.fmuladd.f32(float %23, float %33, float %31)
  %35 = getelementptr inbounds [3 x [3 x float]], ptr %3, i64 0, i64 %indvars.iv22.i, i64 %indvars.iv.i
  store float %34, ptr %35, align 4, !tbaa !3
  %indvars.iv.next.i = add nuw nsw i64 %indvars.iv.i, 1
  %exitcond.not.i = icmp eq i64 %indvars.iv.next.i, 3
  br i1 %exitcond.not.i, label %24, label %25, !llvm.loop !9

lv_matrix_multiply.exit:                          ; preds = %24
  %36 = call ptr @lv_memcpy(ptr noundef %0, ptr noundef nonnull %3, i64 noundef 36) #9
  call void @llvm.lifetime.end.p0(i64 36, ptr nonnull %3) #9
  call void @llvm.lifetime.end.p0(i64 36, ptr nonnull %4) #9
  ret void
}